#include <math.h>
#include <stdio.h>
#include <stdlib.h>
#include <string.h>

int main(){
    double f[100];
    double sum=0.0,a=0.0,s=0.0,S;
    int k;
    scanf("%d",&k);
    for(int i=0;i<k;i++){
        int n;
        scanf("%d",&n);
        for(int j=0;j<n;j++){
        scanf("%lf",&(f[j]));
        sum+=f[j];
        }
        a=sum*1.0/n;
        for(int j=0;j<n;j++){
        s+=pow(f[j]-a,2);
        }
        S=pow(s*1.0/n,1.0/2);
        printf("%.5lf\n",S);
        sum=0.0;
        s=0.0;

        } 
return 0;
}