; ModuleID = '38/664.c'
source_filename = "38/664.c"
target datalayout = "e-m:e-p270:32:32-p271:32:32-p272:64:64-i64:64-f80:128-n8:16:32:64-S128"
target triple = "x86_64-pc-linux-gnu"

@.str = private unnamed_addr constant [3 x i8] c"%d\00", align 1
@.str.1 = private unnamed_addr constant [4 x i8] c"%lf\00", align 1
@.str.2 = private unnamed_addr constant [7 x i8] c"%.5lf\0A\00", align 1

; Function Attrs: noinline nounwind uwtable
define dso_local i32 @main() #0 {
  %1 = alloca i32, align 4
  %2 = alloca [100 x double], align 16
  %3 = alloca double, align 8
  %4 = alloca double, align 8
  %5 = alloca double, align 8
  %6 = alloca double, align 8
  %7 = alloca i32, align 4
  %8 = alloca i32, align 4
  %9 = alloca i32, align 4
  %10 = alloca i32, align 4
  %11 = alloca i32, align 4
  store i32 0, i32* %1, align 4
  store double 0.000000e+00, double* %3, align 8
  store double 0.000000e+00, double* %4, align 8
  store double 0.000000e+00, double* %5, align 8
  %12 = call i32 (i8*, ...) @__isoc99_scanf(i8* getelementptr inbounds ([3 x i8], [3 x i8]* @.str, i64 0, i64 0), i32* %7)
  store i32 0, i32* %8, align 4
  br label %13

13:                                               ; preds = %69, %0
  %14 = load i32, i32* %8, align 4
  %15 = load i32, i32* %7, align 4
  %16 = icmp slt i32 %14, %15
  br i1 %16, label %17, label %72

17:                                               ; preds = %13
  %18 = call i32 (i8*, ...) @__isoc99_scanf(i8* getelementptr inbounds ([3 x i8], [3 x i8]* @.str, i64 0, i64 0), i32* %9)
  store i32 0, i32* %10, align 4
  br label %19

19:                                               ; preds = %34, %17
  %20 = load i32, i32* %10, align 4
  %21 = load i32, i32* %9, align 4
  %22 = icmp slt i32 %20, %21
  br i1 %22, label %23, label %37

23:                                               ; preds = %19
  %24 = load i32, i32* %10, align 4
  %25 = sext i32 %24 to i64
  %26 = getelementptr inbounds [100 x double], [100 x double]* %2, i64 0, i64 %25
  %27 = call i32 (i8*, ...) @__isoc99_scanf(i8* getelementptr inbounds ([4 x i8], [4 x i8]* @.str.1, i64 0, i64 0), double* %26)
  %28 = load i32, i32* %10, align 4
  %29 = sext i32 %28 to i64
  %30 = getelementptr inbounds [100 x double], [100 x double]* %2, i64 0, i64 %29
  %31 = load double, double* %30, align 8
  %32 = load double, double* %3, align 8
  %33 = fadd double %32, %31
  store double %33, double* %3, align 8
  br label %34

34:                                               ; preds = %23
  %35 = load i32, i32* %10, align 4
  %36 = add nsw i32 %35, 1
  store i32 %36, i32* %10, align 4
  br label %19

37:                                               ; preds = %19
  %38 = load double, double* %3, align 8
  %39 = fmul double %38, 1.000000e+00
  %40 = load i32, i32* %9, align 4
  %41 = sitofp i32 %40 to double
  %42 = fdiv double %39, %41
  store double %42, double* %4, align 8
  store i32 0, i32* %11, align 4
  br label %43

43:                                               ; preds = %57, %37
  %44 = load i32, i32* %11, align 4
  %45 = load i32, i32* %9, align 4
  %46 = icmp slt i32 %44, %45
  br i1 %46, label %47, label %60

47:                                               ; preds = %43
  %48 = load i32, i32* %11, align 4
  %49 = sext i32 %48 to i64
  %50 = getelementptr inbounds [100 x double], [100 x double]* %2, i64 0, i64 %49
  %51 = load double, double* %50, align 8
  %52 = load double, double* %4, align 8
  %53 = fsub double %51, %52
  %54 = call double @pow(double %53, double 2.000000e+00) #3
  %55 = load double, double* %5, align 8
  %56 = fadd double %55, %54
  store double %56, double* %5, align 8
  br label %57

57:                                               ; preds = %47
  %58 = load i32, i32* %11, align 4
  %59 = add nsw i32 %58, 1
  store i32 %59, i32* %11, align 4
  br label %43

60:                                               ; preds = %43
  %61 = load double, double* %5, align 8
  %62 = fmul double %61, 1.000000e+00
  %63 = load i32, i32* %9, align 4
  %64 = sitofp i32 %63 to double
  %65 = fdiv double %62, %64
  %66 = call double @pow(double %65, double 5.000000e-01) #3
  store double %66, double* %6, align 8
  %67 = load double, double* %6, align 8
  %68 = call i32 (i8*, ...) @printf(i8* getelementptr inbounds ([7 x i8], [7 x i8]* @.str.2, i64 0, i64 0), double %67)
  store double 0.000000e+00, double* %3, align 8
  store double 0.000000e+00, double* %5, align 8
  br label %69

69:                                               ; preds = %60
  %70 = load i32, i32* %8, align 4
  %71 = add nsw i32 %70, 1
  store i32 %71, i32* %8, align 4
  br label %13

72:                                               ; preds = %13
  ret i32 0
}

declare dso_local i32 @__isoc99_scanf(i8*, ...) #1

; Function Attrs: nounwind
declare dso_local double @pow(double, double) #2

declare dso_local i32 @printf(i8*, ...) #1


!llvm.module.flags = !{!0}
!llvm.ident = !{!1}

!0 = !{i32 1, !"wchar_size", i32 4}
!1 = !{!"clang version 10.0.0-4ubuntu1 "}
